target datalayout = "e-m:e-p270:32:32-p271:32:32-p272:64:64-i64:64-i128:128-f80:128-n8:16:32:64-S128"
target triple = "x86_64-pc-linux-gnu"

@ignore_case = external global i32, align 4
@sane_ctype = external constant [256 x i8], align 16

; Function Attrs: inlinehint nounwind uwtable
define internal i32 @sane_case(i32 noundef %0, i32 noundef %1) #3 {
  %3 = alloca i32, align 4
  %4 = alloca i32, align 4
  store i32 %0, ptr %3, align 4, !tbaa !16
  store i32 %1, ptr %4, align 4, !tbaa !16
  %5 = load i32, ptr %3, align 4, !tbaa !16
  %6 = trunc i32 %5 to i8
  %7 = zext i8 %6 to i64
  %8 = getelementptr inbounds nuw [256 x i8], ptr @sane_ctype, i64 0, i64 %7
  %9 = load i8, ptr %8, align 1, !tbaa !15
  %10 = zext i8 %9 to i32
  %11 = and i32 %10, 4
  %12 = icmp ne i32 %11, 0
  br i1 %12, label %13, label %18

13:                                               ; preds = %2
  %14 = load i32, ptr %3, align 4, !tbaa !16
  %15 = and i32 %14, -33
  %16 = load i32, ptr %4, align 4, !tbaa !16
  %17 = or i32 %15, %16
  store i32 %17, ptr %3, align 4, !tbaa !16
  br label %18

18:                                               ; preds = %13, %2
  %19 = load i32, ptr %3, align 4, !tbaa !16
  ret i32 %19
}

; Function Attrs: inlinehint nounwind uwtable
define internal i32 @git_is_dir_sep(i32 noundef %0) #3 {
  %2 = alloca i32, align 4
  store i32 %0, ptr %2, align 4, !tbaa !16
  %3 = load i32, ptr %2, align 4, !tbaa !16
  %4 = icmp eq i32 %3, 47
  %5 = zext i1 %4 to i32
  ret i32 %5
}

; Function Attrs: nounwind uwtable
define internal i32 @cmp_icase(i8 noundef signext %0, i8 noundef signext %1) #0 {
  %3 = alloca i32, align 4
  %4 = alloca i8, align 1
  %5 = alloca i8, align 1
  store i8 %0, ptr %4, align 1, !tbaa !15
  store i8 %1, ptr %5, align 1, !tbaa !15
  %6 = load i8, ptr %4, align 1, !tbaa !15
  %7 = sext i8 %6 to i32
  %8 = load i8, ptr %5, align 1, !tbaa !15
  %9 = sext i8 %8 to i32
  %10 = icmp eq i32 %7, %9
  br i1 %10, label %11, label %12

11:                                               ; preds = %2
  store i32 0, ptr %3, align 4
  br label %29

12:                                               ; preds = %2
  %13 = load i32, ptr @ignore_case, align 4, !tbaa !16
  %14 = icmp ne i32 %13, 0
  br i1 %14, label %15, label %23

15:                                               ; preds = %12
  %16 = load i8, ptr %4, align 1, !tbaa !15
  %17 = zext i8 %16 to i32
  %18 = call i32 @sane_case(i32 noundef %17, i32 noundef 0)
  %19 = load i8, ptr %5, align 1, !tbaa !15
  %20 = zext i8 %19 to i32
  %21 = call i32 @sane_case(i32 noundef %20, i32 noundef 0)
  %22 = sub nsw i32 %18, %21
  store i32 %22, ptr %3, align 4
  br label %29

23:                                               ; preds = %12
  %24 = load i8, ptr %4, align 1, !tbaa !15
  %25 = sext i8 %24 to i32
  %26 = load i8, ptr %5, align 1, !tbaa !15
  %27 = sext i8 %26 to i32
  %28 = sub nsw i32 %25, %27
  store i32 %28, ptr %3, align 4
  br label %29

29:                                               ; preds = %23, %15, %11
  %30 = load i32, ptr %3, align 4
  ret i32 %30
}

; Function Attrs: nounwind uwtable
define dso_local i32 @dir_inside_of(ptr noundef %0, ptr noundef %1) #0 {
  %3 = alloca i32, align 4
  %4 = alloca ptr, align 8
  %5 = alloca ptr, align 8
  %6 = alloca i32, align 4
  %7 = alloca i32, align 4
  store ptr %0, ptr %4, align 8, !tbaa !13
  store ptr %1, ptr %5, align 8, !tbaa !13
  call void @llvm.lifetime.start.p0(i64 4, ptr %6) #12
  store i32 0, ptr %6, align 4, !tbaa !16
  br label %8

8:                                                ; preds = %28, %2
  %9 = load ptr, ptr %5, align 8, !tbaa !13
  %10 = load i8, ptr %9, align 1, !tbaa !15
  %11 = sext i8 %10 to i32
  %12 = icmp ne i32 %11, 0
  br i1 %12, label %13, label %26

13:                                               ; preds = %8
  %14 = load ptr, ptr %4, align 8, !tbaa !13
  %15 = load i8, ptr %14, align 1, !tbaa !15
  %16 = sext i8 %15 to i32
  %17 = icmp ne i32 %16, 0
  br i1 %17, label %18, label %26

18:                                               ; preds = %13
  %19 = load ptr, ptr %5, align 8, !tbaa !13
  %20 = load i8, ptr %19, align 1, !tbaa !15
  %21 = load ptr, ptr %4, align 8, !tbaa !13
  %22 = load i8, ptr %21, align 1, !tbaa !15
  %23 = call i32 @cmp_icase(i8 noundef signext %20, i8 noundef signext %22)
  %24 = icmp ne i32 %23, 0
  %25 = xor i1 %24, true
  br label %26

26:                                               ; preds = %18, %13, %8
  %27 = phi i1 [ false, %13 ], [ false, %8 ], [ %25, %18 ]
  br i1 %27, label %28, label %35

28:                                               ; preds = %26
  %29 = load ptr, ptr %5, align 8, !tbaa !13
  %30 = getelementptr inbounds nuw i8, ptr %29, i32 1
  store ptr %30, ptr %5, align 8, !tbaa !13
  %31 = load ptr, ptr %4, align 8, !tbaa !13
  %32 = getelementptr inbounds nuw i8, ptr %31, i32 1
  store ptr %32, ptr %4, align 8, !tbaa !13
  %33 = load i32, ptr %6, align 4, !tbaa !16
  %34 = add nsw i32 %33, 1
  store i32 %34, ptr %6, align 4, !tbaa !16
  br label %8, !llvm.loop !200

35:                                               ; preds = %26
  %36 = load ptr, ptr %5, align 8, !tbaa !13
  %37 = load i8, ptr %36, align 1, !tbaa !15
  %38 = sext i8 %37 to i32
  %39 = icmp ne i32 %38, 0
  br i1 %39, label %40, label %46

40:                                               ; preds = %35
  %41 = load ptr, ptr %4, align 8, !tbaa !13
  %42 = load i8, ptr %41, align 1, !tbaa !15
  %43 = sext i8 %42 to i32
  %44 = icmp ne i32 %43, 0
  br i1 %44, label %45, label %46

45:                                               ; preds = %40
  store i32 -1, ptr %3, align 4
  store i32 1, ptr %7, align 4
  br label %90

46:                                               ; preds = %40, %35
  %47 = load ptr, ptr %4, align 8, !tbaa !13
  %48 = load i8, ptr %47, align 1, !tbaa !15
  %49 = icmp ne i8 %48, 0
  br i1 %49, label %59, label %50

50:                                               ; preds = %46
  %51 = load ptr, ptr %5, align 8, !tbaa !13
  %52 = load i8, ptr %51, align 1, !tbaa !15
  %53 = icmp ne i8 %52, 0
  br i1 %53, label %56, label %54

54:                                               ; preds = %50
  %55 = load i32, ptr %6, align 4, !tbaa !16
  br label %57

56:                                               ; preds = %50
  br label %57

57:                                               ; preds = %56, %54
  %58 = phi i32 [ %55, %54 ], [ -1, %56 ]
  store i32 %58, ptr %3, align 4
  store i32 1, ptr %7, align 4
  br label %90

59:                                               ; preds = %46
  %60 = load ptr, ptr %5, align 8, !tbaa !13
  %61 = getelementptr inbounds i8, ptr %60, i64 -1
  %62 = load i8, ptr %61, align 1, !tbaa !15
  %63 = sext i8 %62 to i32
  %64 = call i32 @git_is_dir_sep(i32 noundef %63)
  %65 = icmp ne i32 %64, 0
  br i1 %65, label %66, label %78

66:                                               ; preds = %59
  %67 = load ptr, ptr %4, align 8, !tbaa !13
  %68 = getelementptr inbounds i8, ptr %67, i64 -1
  %69 = load i8, ptr %68, align 1, !tbaa !15
  %70 = sext i8 %69 to i32
  %71 = call i32 @git_is_dir_sep(i32 noundef %70)
  %72 = icmp ne i32 %71, 0
  br i1 %72, label %73, label %75

73:                                               ; preds = %66
  %74 = load i32, ptr %6, align 4, !tbaa !16
  br label %76

75:                                               ; preds = %66
  br label %76

76:                                               ; preds = %75, %73
  %77 = phi i32 [ %74, %73 ], [ -1, %75 ]
  store i32 %77, ptr %3, align 4
  store i32 1, ptr %7, align 4
  br label %90

78:                                               ; preds = %59
  %79 = load ptr, ptr %4, align 8, !tbaa !13
  %80 = load i8, ptr %79, align 1, !tbaa !15
  %81 = sext i8 %80 to i32
  %82 = call i32 @git_is_dir_sep(i32 noundef %81)
  %83 = icmp ne i32 %82, 0
  br i1 %83, label %84, label %87

84:                                               ; preds = %78
  %85 = load i32, ptr %6, align 4, !tbaa !16
  %86 = add nsw i32 %85, 1
  br label %88

87:                                               ; preds = %78
  br label %88

88:                                               ; preds = %87, %84
  %89 = phi i32 [ %86, %84 ], [ -1, %87 ]
  store i32 %89, ptr %3, align 4
  store i32 1, ptr %7, align 4
  br label %90

90:                                               ; preds = %88, %76, %57, %45
  call void @llvm.lifetime.end.p0(i64 4, ptr %6) #12
  %91 = load i32, ptr %3, align 4
  ret i32 %91
}

; Function Attrs: nounwind uwtable
define dso_local i32 @is_inside_dir(ptr noundef %0) #0 {
  %2 = alloca i32, align 4
  %3 = alloca ptr, align 8
  %4 = alloca ptr, align 8
  %5 = alloca i32, align 4
  %6 = alloca i32, align 4
  store ptr %0, ptr %3, align 8, !tbaa !13
  call void @llvm.lifetime.start.p0(i64 8, ptr %4) #12
  call void @llvm.lifetime.start.p0(i64 4, ptr %5) #12
  %7 = load ptr, ptr %3, align 8, !tbaa !13
  %8 = icmp ne ptr %7, null
  br i1 %8, label %10, label %9

9:                                                ; preds = %1
  store i32 0, ptr %2, align 4
  store i32 1, ptr %6, align 4
  br label %19

10:                                               ; preds = %1
  %11 = call ptr @xgetcwd()
  store ptr %11, ptr %4, align 8, !tbaa !13
  %12 = load ptr, ptr %4, align 8, !tbaa !13
  %13 = load ptr, ptr %3, align 8, !tbaa !13
  %14 = call i32 @dir_inside_of(ptr noundef %12, ptr noundef %13)
  %15 = icmp sge i32 %14, 0
  %16 = zext i1 %15 to i32
  store i32 %16, ptr %5, align 4, !tbaa !16
  %17 = load ptr, ptr %4, align 8, !tbaa !13
  call void @free(ptr noundef %17) #12
  %18 = load i32, ptr %5, align 4, !tbaa !16
  store i32 %18, ptr %2, align 4
  store i32 1, ptr %6, align 4
  br label %19

19:                                               ; preds = %10, %9
  call void @llvm.lifetime.end.p0(i64 4, ptr %5) #12
  call void @llvm.lifetime.end.p0(i64 8, ptr %4) #12
  %20 = load i32, ptr %2, align 4
  ret i32 %20
}