; Function Attrs: nounwind uwtable
define dso_local range(i32 0, 2) i32 @is_inside_dir(ptr noundef readonly %0) local_unnamed_addr #0 {
  %.not = icmp eq ptr %0, null
  br i1 %.not, label %44, label %2

2:                                                ; preds = %1
  %3 = tail call ptr @xgetcwd() #27
  %4 = load i8, ptr %0, align 1, !tbaa !4
  %.not42.i = icmp eq i8 %4, 0
  br i1 %.not42.i, label %.critedge.i, label %.lr.ph.i

.lr.ph.i:                                         ; preds = %2
  %5 = load i32, ptr @ignore_case, align 4
  %.fr.i = freeze i32 %5
  %.not.i.i = icmp eq i32 %.fr.i, 0
  br i1 %.not.i.i, label %.lr.ph.split.us.i, label %.lr.ph.split.i

.lr.ph.split.us.i:                                ; preds = %.lr.ph.i, %cmp_icase.exit.thread.us.i
  %6 = phi i8 [ %11, %cmp_icase.exit.thread.us.i ], [ %4, %.lr.ph.i ]
  %.045.us.i = phi i32 [ %10, %cmp_icase.exit.thread.us.i ], [ 0, %.lr.ph.i ]
  %.01744.us.i = phi ptr [ %8, %cmp_icase.exit.thread.us.i ], [ %0, %.lr.ph.i ]
  %.01843.us.i = phi ptr [ %9, %cmp_icase.exit.thread.us.i ], [ %3, %.lr.ph.i ]
  %7 = load i8, ptr %.01843.us.i, align 1, !tbaa !4
  %.not21.us.i = icmp eq i8 %6, %7
  br i1 %.not21.us.i, label %cmp_icase.exit.thread.us.i, label %dir_inside_of.exit

cmp_icase.exit.thread.us.i:                       ; preds = %.lr.ph.split.us.i
  %8 = getelementptr inbounds nuw i8, ptr %.01744.us.i, i64 1
  %9 = getelementptr inbounds nuw i8, ptr %.01843.us.i, i64 1
  %10 = add nuw nsw i32 %.045.us.i, 1
  %11 = load i8, ptr %8, align 1, !tbaa !4
  %.not.us.i = icmp eq i8 %11, 0
  br i1 %.not.us.i, label %.critedge.i, label %.lr.ph.split.us.i, !llvm.loop !184

.lr.ph.split.i:                                   ; preds = %.lr.ph.i, %cmp_icase.exit.thread.i
  %12 = phi i8 [ %31, %cmp_icase.exit.thread.i ], [ %4, %.lr.ph.i ]
  %.045.i = phi i32 [ %30, %cmp_icase.exit.thread.i ], [ 0, %.lr.ph.i ]
  %.01744.i = phi ptr [ %28, %cmp_icase.exit.thread.i ], [ %0, %.lr.ph.i ]
  %.01843.i = phi ptr [ %29, %cmp_icase.exit.thread.i ], [ %3, %.lr.ph.i ]
  %13 = load i8, ptr %.01843.i, align 1, !tbaa !4
  %.not20.i = icmp eq i8 %13, 0
  br i1 %.not20.i, label %dir_inside_of.exit, label %14

14:                                               ; preds = %.lr.ph.split.i
  %15 = icmp eq i8 %12, %13
  br i1 %15, label %cmp_icase.exit.thread.i, label %cmp_icase.exit.i

cmp_icase.exit.i:                                 ; preds = %14
  %16 = zext i8 %12 to i32
  %17 = zext i8 %12 to i64
  %18 = getelementptr inbounds nuw [256 x i8], ptr @sane_ctype, i64 0, i64 %17
  %19 = load i8, ptr %18, align 1, !tbaa !4
  %20 = and i8 %19, 4
  %.not.i.i.i = icmp eq i8 %20, 0
  %21 = and i32 %16, 223
  %spec.select.i.i.i = select i1 %.not.i.i.i, i32 %16, i32 %21
  %22 = zext i8 %13 to i32
  %23 = zext i8 %13 to i64
  %24 = getelementptr inbounds nuw [256 x i8], ptr @sane_ctype, i64 0, i64 %23
  %25 = load i8, ptr %24, align 1, !tbaa !4
  %26 = and i8 %25, 4
  %.not.i9.i.i = icmp eq i8 %26, 0
  %27 = and i32 %22, 223
  %spec.select.i10.i.i = select i1 %.not.i9.i.i, i32 %22, i32 %27
  %.not21.i = icmp eq i32 %spec.select.i.i.i, %spec.select.i10.i.i
  br i1 %.not21.i, label %cmp_icase.exit.thread.i, label %dir_inside_of.exit

cmp_icase.exit.thread.i:                          ; preds = %cmp_icase.exit.i, %14
  %28 = getelementptr inbounds nuw i8, ptr %.01744.i, i64 1
  %29 = getelementptr inbounds nuw i8, ptr %.01843.i, i64 1
  %30 = add nuw nsw i32 %.045.i, 1
  %31 = load i8, ptr %28, align 1, !tbaa !4
  %.not.i = icmp eq i8 %31, 0
  br i1 %.not.i, label %.critedge.i, label %.lr.ph.split.i, !llvm.loop !184

.critedge.i:                                      ; preds = %cmp_icase.exit.thread.i, %cmp_icase.exit.thread.us.i, %2
  %.018.lcssa.i = phi ptr [ %3, %2 ], [ %9, %cmp_icase.exit.thread.us.i ], [ %29, %cmp_icase.exit.thread.i ]
  %.017.lcssa.i = phi ptr [ %0, %2 ], [ %8, %cmp_icase.exit.thread.us.i ], [ %28, %cmp_icase.exit.thread.i ]
  %.0.lcssa.i = phi i32 [ 0, %2 ], [ %10, %cmp_icase.exit.thread.us.i ], [ %30, %cmp_icase.exit.thread.i ]
  %.pr32.i = load i8, ptr %.018.lcssa.i, align 1, !tbaa !4
  %.not24.i = icmp eq i8 %.pr32.i, 0
  br i1 %.not24.i, label %dir_inside_of.exit, label %32

32:                                               ; preds = %.critedge.i
  %33 = getelementptr inbounds i8, ptr %.017.lcssa.i, i64 -1
  %34 = load i8, ptr %33, align 1, !tbaa !4
  %.not36.i = icmp eq i8 %34, 47
  br i1 %.not36.i, label %35, label %39

35:                                               ; preds = %32
  %36 = getelementptr inbounds i8, ptr %.018.lcssa.i, i64 -1
  %37 = load i8, ptr %36, align 1, !tbaa !4
  %.not37.i = icmp eq i8 %37, 47
  %38 = select i1 %.not37.i, i32 %.0.lcssa.i, i32 -1
  br label %dir_inside_of.exit

39:                                               ; preds = %32
  %.not38.i = icmp eq i8 %.pr32.i, 47
  %40 = add nuw nsw i32 %.0.lcssa.i, 1
  %41 = select i1 %.not38.i, i32 %40, i32 -1
  br label %dir_inside_of.exit

dir_inside_of.exit:                               ; preds = %.lr.ph.split.i, %cmp_icase.exit.i, %.lr.ph.split.us.i, %.critedge.i, %35, %39
  %.019.i = phi i32 [ %38, %35 ], [ %41, %39 ], [ %.0.lcssa.i, %.critedge.i ], [ -1, %.lr.ph.split.us.i ], [ -1, %cmp_icase.exit.i ], [ -1, %.lr.ph.split.i ]
  %42 = icmp sgt i32 %.019.i, -1
  %43 = zext i1 %42 to i32
  tail call void @free(ptr noundef %3) #27
  br label %44

44:                                               ; preds = %1, %dir_inside_of.exit
  %.0 = phi i32 [ %43, %dir_inside_of.exit ], [ 0, %1 ]
  ret i32 %.0
}